; Function Attrs: mustprogress nofree norecurse nosync nounwind willreturn memory(argmem: readwrite) uwtable
define void @_ZN8QuantLib23HimalayaMultiPathPricerC2EN5boost10shared_ptrINS_6PayoffEEEd(ptr nocapture noundef nonnull writeonly align 8 dereferenceable(32) %this, ptr nocapture noundef %payoff, double noundef %discount) unnamed_addr #8 align 2 {
entry:
  store ptr getelementptr inbounds inrange(-16, 24) (i8, ptr @_ZTVN8QuantLib23HimalayaMultiPathPricerE, i64 16), ptr %this, align 8, !tbaa !14
  %payoff_ = getelementptr inbounds nuw i8, ptr %this, i64 8
  %0 = load ptr, ptr %payoff, align 8, !tbaa !18
  store ptr %0, ptr %payoff_, align 8, !tbaa !18
  %pn.i = getelementptr inbounds nuw i8, ptr %this, i64 16
  %pn3.i = getelementptr inbounds nuw i8, ptr %payoff, i64 8
  %1 = load ptr, ptr %pn3.i, align 8, !tbaa !16
  store ptr %1, ptr %pn.i, align 8, !tbaa !16
  tail call void @llvm.memset.p0.i64(ptr noundef nonnull align 8 dereferenceable(16) %payoff, i8 0, i64 16, i1 false)
  %discount_ = getelementptr inbounds nuw i8, ptr %this, i64 24
  store double %discount, ptr %discount_, align 8, !tbaa !20
  ret void
}